target datalayout = "e-m:e-p270:32:32-p271:32:32-p272:64:64-i64:64-i128:128-f80:128-n8:16:32:64-S128"
target triple = "x86_64-pc-linux-gnu"

%struct.ScanKeyData = type { i32, i16, i16, i32, i32, %struct.FmgrInfo, i64 }
%struct.FmgrInfo = type { ptr, i32, i16, i8, i8, i8, ptr, ptr, ptr }
%struct.ForEachState = type { ptr, i32 }
%struct.List = type { i32, i32, i32, ptr, [0 x %union.ListCell] }
%union.ListCell = type { ptr }

@.str = private unnamed_addr constant [5 x i8] c"%s%d\00", align 1

; Function Attrs: inlinehint nounwind uwtable
define internal i64 @PointerGetDatum(ptr noundef %0) #3 {
  %2 = alloca ptr, align 8
  store ptr %0, ptr %2, align 8
  %3 = load ptr, ptr %2, align 8
  %4 = ptrtoint ptr %3 to i64
  ret i64 %4
}

; Function Attrs: inlinehint nounwind uwtable
define internal i64 @ObjectIdGetDatum(i32 noundef %0) #3 {
  %2 = alloca i32, align 4
  store i32 %0, ptr %2, align 4
  %3 = load i32, ptr %2, align 4
  %4 = zext i32 %3 to i64
  ret i64 %4
}

; Function Attrs: inlinehint nounwind uwtable
define internal i64 @CStringGetDatum(ptr noundef %0) #3 {
  %2 = alloca ptr, align 8
  store ptr %0, ptr %2, align 8
  %3 = load ptr, ptr %2, align 8
  %4 = call i64 @PointerGetDatum(ptr noundef %3)
  ret i64 %4
}

; Function Attrs: nounwind uwtable
define dso_local ptr @ChooseConstraintName(ptr noundef %0, ptr noundef %1, ptr noundef %2, i32 noundef %3, ptr noundef %4) #0 {
  %6 = alloca ptr, align 8
  %7 = alloca ptr, align 8
  %8 = alloca ptr, align 8
  %9 = alloca i32, align 4
  %10 = alloca ptr, align 8
  %11 = alloca i32, align 4
  %12 = alloca ptr, align 8
  %13 = alloca [64 x i8], align 16
  %14 = alloca ptr, align 8
  %15 = alloca ptr, align 8
  %16 = alloca [2 x %struct.ScanKeyData], align 16
  %17 = alloca i8, align 1
  %18 = alloca ptr, align 8
  %19 = alloca %struct.ForEachState, align 8
  %20 = alloca i32, align 4
  store ptr %0, ptr %6, align 8
  store ptr %1, ptr %7, align 8
  store ptr %2, ptr %8, align 8
  store i32 %3, ptr %9, align 4
  store ptr %4, ptr %10, align 8
  call void @llvm.lifetime.start.p0(i64 4, ptr %11) #9
  store i32 0, ptr %11, align 4
  call void @llvm.lifetime.start.p0(i64 8, ptr %12) #9
  store ptr null, ptr %12, align 8
  call void @llvm.lifetime.start.p0(i64 64, ptr %13) #9
  call void @llvm.lifetime.start.p0(i64 8, ptr %14) #9
  call void @llvm.lifetime.start.p0(i64 8, ptr %15) #9
  call void @llvm.lifetime.start.p0(i64 144, ptr %16) #9
  call void @llvm.lifetime.start.p0(i64 1, ptr %17) #9
  call void @llvm.lifetime.start.p0(i64 8, ptr %18) #9
  %21 = call ptr @table_open(i32 noundef 2606, i32 noundef 1)
  store ptr %21, ptr %14, align 8
  %22 = getelementptr inbounds [64 x i8], ptr %13, i64 0, i64 0
  %23 = load ptr, ptr %8, align 8
  %24 = call i64 @strlcpy(ptr noundef %22, ptr noundef %23, i64 noundef 64)
  br label %25

25:                                               ; preds = %95, %5
  %26 = load ptr, ptr %6, align 8
  %27 = load ptr, ptr %7, align 8
  %28 = getelementptr inbounds [64 x i8], ptr %13, i64 0, i64 0
  %29 = call ptr @makeObjectName(ptr noundef %26, ptr noundef %27, ptr noundef %28)
  store ptr %29, ptr %12, align 8
  store i8 0, ptr %17, align 1
  call void @llvm.lifetime.start.p0(i64 16, ptr %19) #9
  %30 = getelementptr inbounds nuw %struct.ForEachState, ptr %19, i32 0, i32 0
  %31 = load ptr, ptr %10, align 8
  store ptr %31, ptr %30, align 8
  %32 = getelementptr inbounds nuw %struct.ForEachState, ptr %19, i32 0, i32 1
  store i32 0, ptr %32, align 8
  %33 = getelementptr i8, ptr %19, i64 12
  call void @llvm.memset.p0.i64(ptr align 4 %33, i8 0, i64 4, i1 false)
  br label %34

34:                                               ; preds = %68, %25
  %35 = getelementptr inbounds nuw %struct.ForEachState, ptr %19, i32 0, i32 0
  %36 = load ptr, ptr %35, align 8
  %37 = icmp ne ptr %36, null
  br i1 %37, label %38, label %55

38:                                               ; preds = %34
  %39 = getelementptr inbounds nuw %struct.ForEachState, ptr %19, i32 0, i32 1
  %40 = load i32, ptr %39, align 8
  %41 = getelementptr inbounds nuw %struct.ForEachState, ptr %19, i32 0, i32 0
  %42 = load ptr, ptr %41, align 8
  %43 = getelementptr inbounds nuw %struct.List, ptr %42, i32 0, i32 1
  %44 = load i32, ptr %43, align 4
  %45 = icmp slt i32 %40, %44
  br i1 %45, label %46, label %55

46:                                               ; preds = %38
  %47 = getelementptr inbounds nuw %struct.ForEachState, ptr %19, i32 0, i32 0
  %48 = load ptr, ptr %47, align 8
  %49 = getelementptr inbounds nuw %struct.List, ptr %48, i32 0, i32 3
  %50 = load ptr, ptr %49, align 8
  %51 = getelementptr inbounds nuw %struct.ForEachState, ptr %19, i32 0, i32 1
  %52 = load i32, ptr %51, align 8
  %53 = sext i32 %52 to i64
  %54 = getelementptr inbounds %union.ListCell, ptr %50, i64 %53
  store ptr %54, ptr %18, align 8
  br label %56

55:                                               ; preds = %38, %34
  store ptr null, ptr %18, align 8
  br label %56

56:                                               ; preds = %55, %46
  %57 = phi i32 [ 1, %46 ], [ 0, %55 ]
  %58 = icmp ne i32 %57, 0
  br i1 %58, label %60, label %59

59:                                               ; preds = %56
  store i32 4, ptr %20, align 4
  br label %72

60:                                               ; preds = %56
  %61 = load ptr, ptr %18, align 8
  %62 = load ptr, ptr %61, align 8
  %63 = load ptr, ptr %12, align 8
  %64 = call i32 @strcmp(ptr noundef %62, ptr noundef %63) #10
  %65 = icmp eq i32 %64, 0
  br i1 %65, label %66, label %67

66:                                               ; preds = %60
  store i8 1, ptr %17, align 1
  store i32 4, ptr %20, align 4
  br label %72

67:                                               ; preds = %60
  br label %68

68:                                               ; preds = %67
  %69 = getelementptr inbounds nuw %struct.ForEachState, ptr %19, i32 0, i32 1
  %70 = load i32, ptr %69, align 8
  %71 = add i32 %70, 1
  store i32 %71, ptr %69, align 8
  br label %34, !llvm.loop !18

72:                                               ; preds = %66, %59
  call void @llvm.lifetime.end.p0(i64 16, ptr %19) #9
  br label %73

73:                                               ; preds = %72
  %74 = load i8, ptr %17, align 1, !range !13, !noundef !14
  %75 = trunc i8 %74 to i1
  br i1 %75, label %91, label %76

76:                                               ; preds = %73
  %77 = getelementptr inbounds [2 x %struct.ScanKeyData], ptr %16, i64 0, i64 0
  %78 = load ptr, ptr %12, align 8
  %79 = call i64 @CStringGetDatum(ptr noundef %78)
  call void @ScanKeyInit(ptr noundef %77, i16 noundef signext 2, i16 noundef zeroext 3, i32 noundef 62, i64 noundef %79)
  %80 = getelementptr inbounds [2 x %struct.ScanKeyData], ptr %16, i64 0, i64 1
  %81 = load i32, ptr %9, align 4
  %82 = call i64 @ObjectIdGetDatum(i32 noundef %81)
  call void @ScanKeyInit(ptr noundef %80, i16 noundef signext 3, i16 noundef zeroext 3, i32 noundef 184, i64 noundef %82)
  %83 = load ptr, ptr %14, align 8
  %84 = getelementptr inbounds [2 x %struct.ScanKeyData], ptr %16, i64 0, i64 0
  %85 = call ptr @systable_beginscan(ptr noundef %83, i32 noundef 2664, i1 noundef zeroext true, ptr noundef null, i32 noundef 2, ptr noundef %84)
  store ptr %85, ptr %15, align 8
  %86 = load ptr, ptr %15, align 8
  %87 = call ptr @systable_getnext(ptr noundef %86)
  %88 = icmp ne ptr %87, null
  %89 = zext i1 %88 to i8
  store i8 %89, ptr %17, align 1
  %90 = load ptr, ptr %15, align 8
  call void @systable_endscan(ptr noundef %90)
  br label %91

91:                                               ; preds = %76, %73
  %92 = load i8, ptr %17, align 1, !range !13, !noundef !14
  %93 = trunc i8 %92 to i1
  br i1 %93, label %95, label %94

94:                                               ; preds = %91
  br label %102

95:                                               ; preds = %91
  %96 = load ptr, ptr %12, align 8
  call void @pfree(ptr noundef %96)
  %97 = getelementptr inbounds [64 x i8], ptr %13, i64 0, i64 0
  %98 = load ptr, ptr %8, align 8
  %99 = load i32, ptr %11, align 4
  %100 = add i32 %99, 1
  store i32 %100, ptr %11, align 4
  %101 = call i32 (ptr, i64, ptr, ...) @pg_snprintf(ptr noundef %97, i64 noundef 64, ptr noundef @.str, ptr noundef %98, i32 noundef %100)
  br label %25

102:                                              ; preds = %94
  %103 = load ptr, ptr %14, align 8
  call void @table_close(ptr noundef %103, i32 noundef 1)
  %104 = load ptr, ptr %12, align 8
  store i32 1, ptr %20, align 4
  call void @llvm.lifetime.end.p0(i64 8, ptr %18) #9
  call void @llvm.lifetime.end.p0(i64 1, ptr %17) #9
  call void @llvm.lifetime.end.p0(i64 144, ptr %16) #9
  call void @llvm.lifetime.end.p0(i64 8, ptr %15) #9
  call void @llvm.lifetime.end.p0(i64 8, ptr %14) #9
  call void @llvm.lifetime.end.p0(i64 64, ptr %13) #9
  call void @llvm.lifetime.end.p0(i64 8, ptr %12) #9
  call void @llvm.lifetime.end.p0(i64 4, ptr %11) #9
  ret ptr %104
}