; Function Attrs: nounwind uwtable
define dso_local ptr @ChooseConstraintName(ptr noundef %0, ptr noundef %1, ptr noundef %2, i32 noundef %3, ptr noundef readonly captures(address_is_null) %4) local_unnamed_addr #0 {
  %6 = alloca [64 x i8], align 16
  %7 = alloca [2 x %struct.ScanKeyData], align 16
  call void @llvm.lifetime.start.p0(i64 64, ptr nonnull %6) #12
  call void @llvm.lifetime.start.p0(i64 144, ptr nonnull %7) #12
  %8 = tail call ptr @table_open(i32 noundef 2606, i32 noundef 1) #12
  %9 = call i64 @strlcpy(ptr noundef nonnull dereferenceable(1) %6, ptr noundef nonnull dereferenceable(1) %2, i64 noundef 64) #12
  %.not = icmp eq ptr %4, null
  %10 = getelementptr inbounds nuw i8, ptr %4, i64 4
  %11 = getelementptr inbounds nuw i8, ptr %4, i64 16
  %12 = getelementptr inbounds nuw i8, ptr %7, i64 72
  %13 = zext i32 %3 to i64
  br i1 %.not, label %.split.us, label %.lr.ph

.split.us:                                        ; preds = %5, %.thread29.us
  %.0.us = phi i32 [ %18, %.thread29.us ], [ 0, %5 ]
  %14 = call ptr @makeObjectName(ptr noundef %0, ptr noundef %1, ptr noundef nonnull %6) #12
  %15 = ptrtoint ptr %14 to i64
  call void @ScanKeyInit(ptr noundef nonnull %7, i16 noundef signext 2, i16 noundef zeroext 3, i32 noundef 62, i64 noundef %15) #12
  call void @ScanKeyInit(ptr noundef nonnull %12, i16 noundef signext 3, i16 noundef zeroext 3, i32 noundef 184, i64 noundef %13) #12
  %16 = call ptr @systable_beginscan(ptr noundef %8, i32 noundef 2664, i1 noundef zeroext true, ptr noundef null, i32 noundef 2, ptr noundef nonnull %7) #12
  %17 = call ptr @systable_getnext(ptr noundef %16) #12
  %.not31.us = icmp eq ptr %17, null
  call void @systable_endscan(ptr noundef %16) #12
  br i1 %.not31.us, label %.split37.us, label %.thread29.us

.thread29.us:                                     ; preds = %.split.us
  call void @pfree(ptr noundef %14) #12
  %18 = add i32 %.0.us, 1
  %19 = call i32 (ptr, i64, ptr, ...) @pg_snprintf(ptr noundef nonnull %6, i64 noundef 64, ptr noundef nonnull @.str, ptr noundef nonnull %2, i32 noundef %18) #12
  br label %.split.us

.lr.ph:                                           ; preds = %5, %.thread29
  %.0 = phi i32 [ %33, %.thread29 ], [ 0, %5 ]
  %20 = call ptr @makeObjectName(ptr noundef %0, ptr noundef %1, ptr noundef nonnull %6) #12
  %21 = load i32, ptr %10, align 4
  %22 = icmp sgt i32 %21, 0
  br i1 %22, label %.lr.ph35, label %._crit_edge.split

.lr.ph35:                                         ; preds = %.lr.ph
  %23 = load ptr, ptr %11, align 8
  %wide.trip.count = zext nneg i32 %21 to i64
  br label %25

24:                                               ; preds = %25
  %indvars.iv.next = add nuw nsw i64 %indvars.iv, 1
  %exitcond.not = icmp eq i64 %indvars.iv.next, %wide.trip.count
  br i1 %exitcond.not, label %._crit_edge.split, label %25

25:                                               ; preds = %.lr.ph35, %24
  %indvars.iv = phi i64 [ 0, %.lr.ph35 ], [ %indvars.iv.next, %24 ]
  %26 = getelementptr inbounds nuw %union.ListCell, ptr %23, i64 %indvars.iv
  %27 = load ptr, ptr %26, align 8
  %28 = call i32 @strcmp(ptr noundef nonnull dereferenceable(1) %27, ptr noundef nonnull dereferenceable(1) %20) #13
  %29 = icmp eq i32 %28, 0
  br i1 %29, label %.thread29, label %24

._crit_edge.split:                                ; preds = %24, %.lr.ph
  %30 = ptrtoint ptr %20 to i64
  call void @ScanKeyInit(ptr noundef nonnull %7, i16 noundef signext 2, i16 noundef zeroext 3, i32 noundef 62, i64 noundef %30) #12
  call void @ScanKeyInit(ptr noundef nonnull %12, i16 noundef signext 3, i16 noundef zeroext 3, i32 noundef 184, i64 noundef %13) #12
  %31 = call ptr @systable_beginscan(ptr noundef %8, i32 noundef 2664, i1 noundef zeroext true, ptr noundef null, i32 noundef 2, ptr noundef nonnull %7) #12
  %32 = call ptr @systable_getnext(ptr noundef %31) #12
  %.not31 = icmp eq ptr %32, null
  call void @systable_endscan(ptr noundef %31) #12
  br i1 %.not31, label %.split37.us, label %.thread29

.thread29:                                        ; preds = %25, %._crit_edge.split
  call void @pfree(ptr noundef %20) #12
  %33 = add i32 %.0, 1
  %34 = call i32 (ptr, i64, ptr, ...) @pg_snprintf(ptr noundef nonnull %6, i64 noundef 64, ptr noundef nonnull @.str, ptr noundef nonnull %2, i32 noundef %33) #12
  br label %.lr.ph

.split37.us:                                      ; preds = %._crit_edge.split, %.split.us
  %.us-phi = phi ptr [ %14, %.split.us ], [ %20, %._crit_edge.split ]
  call void @table_close(ptr noundef %8, i32 noundef 1) #12
  call void @llvm.lifetime.end.p0(i64 144, ptr nonnull %7) #12
  call void @llvm.lifetime.end.p0(i64 64, ptr nonnull %6) #12
  ret ptr %.us-phi
}